; ModuleID = '44/886.c'
source_filename = "44/886.c"
target datalayout = "e-m:e-p270:32:32-p271:32:32-p272:64:64-i64:64-f80:128-n8:16:32:64-S128"
target triple = "x86_64-pc-linux-gnu"

@.str = private unnamed_addr constant [3 x i8] c"%d\00", align 1
@.str.1 = private unnamed_addr constant [4 x i8] c"%d\0A\00", align 1

; Function Attrs: noinline nounwind uwtable
define dso_local i32 @main() #0 {
  %1 = alloca i32, align 4
  %2 = alloca i32, align 4
  %3 = alloca i32, align 4
  %4 = alloca i32, align 4
  store i32 0, i32* %1, align 4
  store i32 0, i32* %4, align 4
  br label %5

5:                                                ; preds = %14, %0
  %6 = load i32, i32* %4, align 4
  %7 = icmp slt i32 %6, 6
  br i1 %7, label %8, label %17

8:                                                ; preds = %5
  %9 = call i32 (i8*, ...) @__isoc99_scanf(i8* getelementptr inbounds ([3 x i8], [3 x i8]* @.str, i64 0, i64 0), i32* %2)
  %10 = load i32, i32* %2, align 4
  %11 = call i32 @reverse(i32 %10)
  store i32 %11, i32* %3, align 4
  %12 = load i32, i32* %3, align 4
  %13 = call i32 (i8*, ...) @printf(i8* getelementptr inbounds ([4 x i8], [4 x i8]* @.str.1, i64 0, i64 0), i32 %12)
  br label %14

14:                                               ; preds = %8
  %15 = load i32, i32* %4, align 4
  %16 = add nsw i32 %15, 1
  store i32 %16, i32* %4, align 4
  br label %5

17:                                               ; preds = %5
  %18 = call i32 @getchar()
  %19 = call i32 @getchar()
  %20 = call i32 @getchar()
  %21 = load i32, i32* %1, align 4
  ret i32 %21
}

declare dso_local i32 @__isoc99_scanf(i8*, ...) #1

; Function Attrs: noinline nounwind uwtable
define dso_local i32 @reverse(i32 %0) #0 {
  %2 = alloca i32, align 4
  %3 = alloca i32, align 4
  %4 = alloca i32, align 4
  %5 = alloca i32, align 4
  store i32 %0, i32* %3, align 4
  store i32 0, i32* %5, align 4
  store i32 0, i32* %4, align 4
  %6 = load i32, i32* %3, align 4
  %7 = icmp eq i32 %6, 0
  br i1 %7, label %8, label %9

8:                                                ; preds = %1
  store i32 0, i32* %2, align 4
  br label %85

9:                                                ; preds = %1
  %10 = load i32, i32* %3, align 4
  %11 = icmp sgt i32 %10, 0
  br i1 %11, label %12, label %47

12:                                               ; preds = %9
  %13 = load i32, i32* %3, align 4
  %14 = icmp slt i32 %13, 10
  br i1 %14, label %15, label %17

15:                                               ; preds = %12
  %16 = load i32, i32* %3, align 4
  store i32 %16, i32* %2, align 4
  br label %85

17:                                               ; preds = %12
  br label %18

18:                                               ; preds = %27, %17
  %19 = load i32, i32* %4, align 4
  %20 = icmp eq i32 %19, 0
  br i1 %20, label %21, label %30

21:                                               ; preds = %18
  %22 = load i32, i32* %3, align 4
  %23 = srem i32 %22, 10
  store i32 %23, i32* %4, align 4
  %24 = load i32, i32* %4, align 4
  %25 = icmp ne i32 %24, 0
  br i1 %25, label %26, label %27

26:                                               ; preds = %21
  br label %30

27:                                               ; preds = %21
  %28 = load i32, i32* %3, align 4
  %29 = sdiv i32 %28, 10
  store i32 %29, i32* %3, align 4
  br label %18

30:                                               ; preds = %26, %18
  br label %31

31:                                               ; preds = %34, %30
  %32 = load i32, i32* %3, align 4
  %33 = icmp ne i32 %32, 0
  br i1 %33, label %34, label %44

34:                                               ; preds = %31
  %35 = load i32, i32* %3, align 4
  %36 = srem i32 %35, 10
  store i32 %36, i32* %4, align 4
  %37 = load i32, i32* %3, align 4
  %38 = sdiv i32 %37, 10
  store i32 %38, i32* %3, align 4
  %39 = load i32, i32* %5, align 4
  %40 = load i32, i32* %4, align 4
  %41 = add nsw i32 %39, %40
  store i32 %41, i32* %5, align 4
  %42 = load i32, i32* %5, align 4
  %43 = mul nsw i32 10, %42
  store i32 %43, i32* %5, align 4
  br label %31

44:                                               ; preds = %31
  %45 = load i32, i32* %5, align 4
  %46 = sdiv i32 %45, 10
  store i32 %46, i32* %2, align 4
  br label %85

47:                                               ; preds = %9
  %48 = load i32, i32* %3, align 4
  %49 = sub nsw i32 0, %48
  store i32 %49, i32* %3, align 4
  %50 = load i32, i32* %3, align 4
  %51 = icmp slt i32 %50, 10
  br i1 %51, label %52, label %54

52:                                               ; preds = %47
  %53 = load i32, i32* %3, align 4
  store i32 %53, i32* %2, align 4
  br label %85

54:                                               ; preds = %47
  br label %55

55:                                               ; preds = %64, %54
  %56 = load i32, i32* %4, align 4
  %57 = icmp eq i32 %56, 0
  br i1 %57, label %58, label %67

58:                                               ; preds = %55
  %59 = load i32, i32* %3, align 4
  %60 = srem i32 %59, 10
  store i32 %60, i32* %4, align 4
  %61 = load i32, i32* %4, align 4
  %62 = icmp ne i32 %61, 0
  br i1 %62, label %63, label %64

63:                                               ; preds = %58
  br label %67

64:                                               ; preds = %58
  %65 = load i32, i32* %3, align 4
  %66 = sdiv i32 %65, 10
  store i32 %66, i32* %3, align 4
  br label %55

67:                                               ; preds = %63, %55
  br label %68

68:                                               ; preds = %71, %67
  %69 = load i32, i32* %3, align 4
  %70 = icmp ne i32 %69, 0
  br i1 %70, label %71, label %81

71:                                               ; preds = %68
  %72 = load i32, i32* %3, align 4
  %73 = srem i32 %72, 10
  store i32 %73, i32* %4, align 4
  %74 = load i32, i32* %3, align 4
  %75 = sdiv i32 %74, 10
  store i32 %75, i32* %3, align 4
  %76 = load i32, i32* %5, align 4
  %77 = load i32, i32* %4, align 4
  %78 = add nsw i32 %76, %77
  store i32 %78, i32* %5, align 4
  %79 = load i32, i32* %5, align 4
  %80 = mul nsw i32 10, %79
  store i32 %80, i32* %5, align 4
  br label %68

81:                                               ; preds = %68
  %82 = load i32, i32* %5, align 4
  %83 = sub nsw i32 0, %82
  %84 = sdiv i32 %83, 10
  store i32 %84, i32* %2, align 4
  br label %85

85:                                               ; preds = %81, %52, %44, %15, %8
  %86 = load i32, i32* %2, align 4
  ret i32 %86
}

declare dso_local i32 @printf(i8*, ...) #1

declare dso_local i32 @getchar() #1


!llvm.module.flags = !{!0}
!llvm.ident = !{!1}

!0 = !{i32 1, !"wchar_size", i32 4}
!1 = !{!"clang version 10.0.0-4ubuntu1 "}
